target datalayout = "e-m:e-p270:32:32-p271:32:32-p272:64:64-i64:64-i128:128-f80:128-n8:16:32:64-S128"
target triple = "x86_64-pc-linux-gnu"

%struct.TpxFileHeader = type <{ i8, i8, i8, i8, i8, i8, [2 x i8], i32, i32, float, i32, i64, i32, i32, i8, [7 x i8] }>
%"class.gmx::FileIOXdrSerializer" = type { %"class.gmx::ISerializer", ptr }
%"class.gmx::ISerializer" = type { ptr }

@.str.10 = private unnamed_addr constant [2 x i8] c"r\00", align 1

; Function Attrs: mustprogress nounwind uwtable
define linkonce_odr void @_ZN3gmx11ISerializerD2Ev(ptr noundef nonnull align 8 dereferenceable(8) %0) unnamed_addr #3 comdat align 2 {
  %2 = alloca ptr, align 8
  store ptr %0, ptr %2, align 8
  ret void
}

; Function Attrs: mustprogress nounwind uwtable
define linkonce_odr void @_ZN3gmx19FileIOXdrSerializerD2Ev(ptr noundef nonnull align 8 dereferenceable(16) %0) unnamed_addr #3 comdat align 2 {
  %2 = alloca ptr, align 8
  store ptr %0, ptr %2, align 8
  %3 = load ptr, ptr %2, align 8
  call void @_ZN3gmx11ISerializerD2Ev(ptr noundef nonnull align 8 dereferenceable(8) %3) #4
  ret void
}

; Function Attrs: mustprogress uwtable
define internal void @_ZL9close_tpxP8t_fileio(ptr noundef %0) #2 {
  %2 = alloca ptr, align 8
  store ptr %0, ptr %2, align 8
  %3 = load ptr, ptr %2, align 8
  %4 = call noundef i32 @_Z13gmx_fio_closeP8t_fileio(ptr noundef %3)
  ret void
}

; Function Attrs: mustprogress nounwind uwtable
define linkonce_odr void @_ZN13TpxFileHeaderC2Ev(ptr noundef nonnull align 8 dereferenceable(41) %0) unnamed_addr #3 comdat align 2 {
  %2 = alloca ptr, align 8
  store ptr %0, ptr %2, align 8
  %3 = load ptr, ptr %2, align 8
  %4 = getelementptr inbounds %struct.TpxFileHeader, ptr %3, i32 0, i32 0
  store i8 0, ptr %4, align 8
  %5 = getelementptr inbounds %struct.TpxFileHeader, ptr %3, i32 0, i32 1
  store i8 0, ptr %5, align 1
  %6 = getelementptr inbounds %struct.TpxFileHeader, ptr %3, i32 0, i32 2
  store i8 0, ptr %6, align 2
  %7 = getelementptr inbounds %struct.TpxFileHeader, ptr %3, i32 0, i32 3
  store i8 0, ptr %7, align 1
  %8 = getelementptr inbounds %struct.TpxFileHeader, ptr %3, i32 0, i32 4
  store i8 0, ptr %8, align 4
  %9 = getelementptr inbounds %struct.TpxFileHeader, ptr %3, i32 0, i32 5
  store i8 0, ptr %9, align 1
  %10 = getelementptr inbounds %struct.TpxFileHeader, ptr %3, i32 0, i32 7
  store i32 0, ptr %10, align 8
  %11 = getelementptr inbounds %struct.TpxFileHeader, ptr %3, i32 0, i32 8
  store i32 0, ptr %11, align 4
  %12 = getelementptr inbounds %struct.TpxFileHeader, ptr %3, i32 0, i32 9
  store float 0.000000e+00, ptr %12, align 8
  %13 = getelementptr inbounds %struct.TpxFileHeader, ptr %3, i32 0, i32 10
  store i32 0, ptr %13, align 4
  %14 = getelementptr inbounds %struct.TpxFileHeader, ptr %3, i32 0, i32 11
  store i64 0, ptr %14, align 8
  %15 = getelementptr inbounds %struct.TpxFileHeader, ptr %3, i32 0, i32 12
  store i32 0, ptr %15, align 8
  %16 = getelementptr inbounds %struct.TpxFileHeader, ptr %3, i32 0, i32 13
  store i32 0, ptr %16, align 4
  %17 = getelementptr inbounds %struct.TpxFileHeader, ptr %3, i32 0, i32 14
  store i8 0, ptr %17, align 8
  ret void
}

; Function Attrs: mustprogress uwtable
define internal noundef ptr @_ZL8open_tpxRKNSt10filesystem7__cxx114pathEPKc(ptr noundef nonnull align 8 dereferenceable(40) %0, ptr noundef %1) #2 {
  %3 = alloca ptr, align 8
  %4 = alloca ptr, align 8
  store ptr %0, ptr %3, align 8
  store ptr %1, ptr %4, align 8
  %5 = load ptr, ptr %3, align 8
  %6 = load ptr, ptr %4, align 8
  %7 = call noundef ptr @_Z12gmx_fio_openRKNSt10filesystem7__cxx114pathEPKc(ptr noundef nonnull align 8 dereferenceable(40) %5, ptr noundef %6)
  ret ptr %7
}

; Function Attrs: mustprogress uwtable
define void @_Z13readTpxHeaderRKNSt10filesystem7__cxx114pathEb(ptr dead_on_unwind noalias writable sret(%struct.TpxFileHeader) align 8 %0, ptr noundef nonnull align 8 dereferenceable(40) %1, i1 noundef zeroext %2) #2 personality ptr @__gxx_personality_v0 {
  %4 = alloca ptr, align 8
  %5 = alloca i8, align 1
  %6 = alloca ptr, align 8
  %7 = alloca %"class.gmx::FileIOXdrSerializer", align 8
  %8 = alloca ptr, align 8
  %9 = alloca i32, align 4
  store ptr %1, ptr %4, align 8
  %10 = zext i1 %2 to i8
  store i8 %10, ptr %5, align 1
  %11 = load ptr, ptr %4, align 8
  %12 = call noundef ptr @_ZL8open_tpxRKNSt10filesystem7__cxx114pathEPKc(ptr noundef nonnull align 8 dereferenceable(40) %11, ptr noundef @.str.10)
  store ptr %12, ptr %6, align 8
  %13 = load ptr, ptr %6, align 8
  call void @_ZN3gmx19FileIOXdrSerializerC1EP8t_fileio(ptr noundef nonnull align 8 dereferenceable(16) %7, ptr noundef %13)
  call void @_ZN13TpxFileHeaderC2Ev(ptr noundef nonnull align 8 dereferenceable(41) %0) #4
  %14 = load ptr, ptr %4, align 8
  %15 = load ptr, ptr %6, align 8
  %16 = load i8, ptr %5, align 1
  %17 = trunc i8 %16 to i1
  invoke void @_ZL12do_tpxheaderPN3gmx19FileIOXdrSerializerEP13TpxFileHeaderRKNSt10filesystem7__cxx114pathEP8t_fileiob(ptr noundef %7, ptr noundef %0, ptr noundef nonnull align 8 dereferenceable(40) %14, ptr noundef %15, i1 noundef zeroext %17)
          to label %18 unwind label %21

18:                                               ; preds = %3
  %19 = load ptr, ptr %6, align 8
  invoke void @_ZL9close_tpxP8t_fileio(ptr noundef %19)
          to label %20 unwind label %21

20:                                               ; preds = %18
  call void @_ZN3gmx19FileIOXdrSerializerD2Ev(ptr noundef nonnull align 8 dereferenceable(16) %7) #4
  ret void

21:                                               ; preds = %18, %3
  %22 = landingpad { ptr, i32 }
          cleanup
  %23 = extractvalue { ptr, i32 } %22, 0
  store ptr %23, ptr %8, align 8
  %24 = extractvalue { ptr, i32 } %22, 1
  store i32 %24, ptr %9, align 4
  call void @_ZN3gmx19FileIOXdrSerializerD2Ev(ptr noundef nonnull align 8 dereferenceable(16) %7) #4
  br label %25

25:                                               ; preds = %21
  %26 = load ptr, ptr %8, align 8
  %27 = load i32, ptr %9, align 4
  %28 = insertvalue { ptr, i32 } poison, ptr %26, 0
  %29 = insertvalue { ptr, i32 } %28, i32 %27, 1
  resume { ptr, i32 } %29
}