; Function Attrs: mustprogress uwtable
define void @_Z13readTpxHeaderRKNSt10filesystem7__cxx114pathEb(ptr dead_on_unwind noalias writable sret(%struct.TpxFileHeader) align 8 %0, ptr noundef nonnull align 8 dereferenceable(40) %1, i1 noundef zeroext %2) local_unnamed_addr #5 personality ptr @__gxx_personality_v0 {
_ZL9close_tpxP8t_fileio.exit:
  %3 = alloca %"class.gmx::FileIOXdrSerializer", align 8
  %4 = tail call noundef ptr @_Z12gmx_fio_openRKNSt10filesystem7__cxx114pathEPKc(ptr noundef nonnull align 8 dereferenceable(40) %1, ptr noundef nonnull @.str.10)
  call void @_ZN3gmx19FileIOXdrSerializerC1EP8t_fileio(ptr noundef nonnull align 8 dereferenceable(16) %3, ptr noundef %4)
  %5 = getelementptr inbounds i8, ptr %0, i64 8
  call void @llvm.memset.p0.i64(ptr noundef nonnull align 8 dereferenceable(6) %0, i8 0, i64 6, i1 false)
  call void @llvm.memset.p0.i64(ptr noundef nonnull align 8 dereferenceable(33) %5, i8 0, i64 33, i1 false)
  call fastcc void @_ZL12do_tpxheaderPN3gmx19FileIOXdrSerializerEP13TpxFileHeaderRKNSt10filesystem7__cxx114pathEP8t_fileiob(ptr noundef nonnull %3, ptr noundef nonnull %0, ptr noundef nonnull align 8 dereferenceable(40) %1, ptr noundef %4, i1 noundef zeroext %2)
  %6 = call noundef i32 @_Z13gmx_fio_closeP8t_fileio(ptr noundef %4)
  ret void
}